; ModuleID = 'probe1.4b24abe052f48db9-cgu.0'
source_filename = "probe1.4b24abe052f48db9-cgu.0"
target datalayout = "e-m:o-p270:32:32-p271:32:32-p272:64:64-i64:64-f80:128-n8:16:32:64-S128"
target triple = "x86_64-apple-macosx10.7.0"

; core::f64::<impl f64>::to_int_unchecked
; Function Attrs: inlinehint uwtable
define i32 @"_ZN4core3f6421_$LT$impl$u20$f64$GT$16to_int_unchecked17h1939ff4c4435b794E"(double %self) unnamed_addr #0 {
start:
; call <f64 as core::convert::num::FloatToInt<i32>>::to_int_unchecked
  %_0 = call i32 @"_ZN65_$LT$f64$u20$as$u20$core..convert..num..FloatToInt$LT$i32$GT$$GT$16to_int_unchecked17ha49a8ba8238a4f5bE"(double %self)
  ret i32 %_0
}

; <f64 as core::convert::num::FloatToInt<i32>>::to_int_unchecked
; Function Attrs: inlinehint uwtable
define internal i32 @"_ZN65_$LT$f64$u20$as$u20$core..convert..num..FloatToInt$LT$i32$GT$$GT$16to_int_unchecked17ha49a8ba8238a4f5bE"(double %self) unnamed_addr #0 {
start:
  %0 = alloca i32, align 4
  %1 = fptosi double %self to i32
  store i32 %1, ptr %0, align 4
  %_0 = load i32, ptr %0, align 4, !noundef !1
  ret i32 %_0
}

; probe1::probe
; Function Attrs: uwtable
define void @_ZN6probe15probe17h87061877d0ae5ed1E() unnamed_addr #1 {
start:
; call core::f64::<impl f64>::to_int_unchecked
  %_1 = call i32 @"_ZN4core3f6421_$LT$impl$u20$f64$GT$16to_int_unchecked17h1939ff4c4435b794E"(double 1.000000e+00)
  ret void
}

attributes #0 = { inlinehint uwtable "frame-pointer"="all" "probe-stack"="inline-asm" "target-cpu"="core2" }
attributes #1 = { uwtable "frame-pointer"="all" "probe-stack"="inline-asm" "target-cpu"="core2" }

!llvm.module.flags = !{!0}

!0 = !{i32 8, !"PIC Level", i32 2}
!1 = !{}
